target datalayout = "e-m:e-p270:32:32-p271:32:32-p272:64:64-i64:64-i128:128-f80:128-n8:16:32:64-S128"
target triple = "x86_64-pc-linux-gnu"

%struct.dlist_head = type { %struct.dlist_node }
%struct.dlist_node = type { ptr, ptr }
%struct.ReorderBufferTXN = type { i32, i32, i32, ptr, i64, i64, i64, ptr, i64, i16, i64, %union.anon.4, ptr, i64, %struct.dlist_node, ptr, i32, i64, i64, %struct.dlist_head, %struct.dlist_head, i64, ptr, ptr, %struct.dlist_head, i32, i32, ptr, %struct.dlist_node, %struct.dlist_node, %struct.pairingheap_node, i64, i64, ptr }
%union.anon.4 = type { i64 }
%struct.pairingheap_node = type { ptr, ptr, ptr }
%struct.ReorderBufferChange = type { i64, i32, ptr, i16, %union.anon, %struct.dlist_node }
%union.anon = type { %struct.anon }
%struct.anon = type { %struct.RelFileLocator, i8, ptr, ptr }
%struct.RelFileLocator = type { i32, i32, i32 }
%struct.dlist_mutable_iter = type { ptr, ptr, ptr }
%struct.ReorderBufferToastEnt = type { i32, i32, i64, i64, %struct.dlist_head, ptr }
%struct.HASH_SEQ_STATUS = type { ptr, i32, ptr, i8, i32 }

; Function Attrs: inlinehint nounwind uwtable
define internal void @dlist_delete(ptr noundef %0) #4 {
  %2 = alloca ptr, align 8
  store ptr %0, ptr %2, align 8
  %3 = load ptr, ptr %2, align 8
  %4 = getelementptr inbounds nuw %struct.dlist_node, ptr %3, i32 0, i32 1
  %5 = load ptr, ptr %4, align 8
  %6 = load ptr, ptr %2, align 8
  %7 = getelementptr inbounds nuw %struct.dlist_node, ptr %6, i32 0, i32 0
  %8 = load ptr, ptr %7, align 8
  %9 = getelementptr inbounds nuw %struct.dlist_node, ptr %8, i32 0, i32 1
  store ptr %5, ptr %9, align 8
  %10 = load ptr, ptr %2, align 8
  %11 = getelementptr inbounds nuw %struct.dlist_node, ptr %10, i32 0, i32 0
  %12 = load ptr, ptr %11, align 8
  %13 = load ptr, ptr %2, align 8
  %14 = getelementptr inbounds nuw %struct.dlist_node, ptr %13, i32 0, i32 1
  %15 = load ptr, ptr %14, align 8
  %16 = getelementptr inbounds nuw %struct.dlist_node, ptr %15, i32 0, i32 0
  store ptr %12, ptr %16, align 8
  ret void
}

; Function Attrs: nounwind uwtable
define internal void @ReorderBufferToastReset(ptr noundef %0, ptr noundef %1) #0 {
  %3 = alloca ptr, align 8
  %4 = alloca ptr, align 8
  %5 = alloca %struct.HASH_SEQ_STATUS, align 8
  %6 = alloca ptr, align 8
  %7 = alloca i32, align 4
  %8 = alloca %struct.dlist_mutable_iter, align 8
  %9 = alloca i32, align 4
  %10 = alloca i32, align 4
  %11 = alloca ptr, align 8
  %12 = alloca i32, align 4
  %13 = alloca i32, align 4
  store ptr %0, ptr %3, align 8
  store ptr %1, ptr %4, align 8
  call void @llvm.lifetime.start.p0(i64 32, ptr %5) #13
  call void @llvm.lifetime.start.p0(i64 8, ptr %6) #13
  %14 = load ptr, ptr %4, align 8
  %15 = getelementptr inbounds nuw %struct.ReorderBufferTXN, ptr %14, i32 0, i32 23
  %16 = load ptr, ptr %15, align 8
  %17 = icmp eq ptr %16, null
  br i1 %17, label %18, label %19

18:                                               ; preds = %2
  store i32 1, ptr %7, align 4
  br label %103

19:                                               ; preds = %2
  %20 = load ptr, ptr %4, align 8
  %21 = getelementptr inbounds nuw %struct.ReorderBufferTXN, ptr %20, i32 0, i32 23
  %22 = load ptr, ptr %21, align 8
  call void @hash_seq_init(ptr noundef %5, ptr noundef %22)
  br label %23

23:                                               ; preds = %96, %19
  %24 = call ptr @hash_seq_search(ptr noundef %5)
  store ptr %24, ptr %6, align 8
  %25 = icmp ne ptr %24, null
  br i1 %25, label %26, label %97

26:                                               ; preds = %23
  call void @llvm.lifetime.start.p0(i64 24, ptr %8) #13
  %27 = load ptr, ptr %6, align 8
  %28 = getelementptr inbounds nuw %struct.ReorderBufferToastEnt, ptr %27, i32 0, i32 5
  %29 = load ptr, ptr %28, align 8
  %30 = icmp ne ptr %29, null
  br i1 %30, label %31, label %35

31:                                               ; preds = %26
  %32 = load ptr, ptr %6, align 8
  %33 = getelementptr inbounds nuw %struct.ReorderBufferToastEnt, ptr %32, i32 0, i32 5
  %34 = load ptr, ptr %33, align 8
  call void @pfree(ptr noundef %34)
  br label %35

35:                                               ; preds = %31, %26
  br label %36

36:                                               ; preds = %35
  br label %37

37:                                               ; preds = %36
  br label %38

38:                                               ; preds = %37
  store i32 1, ptr %9, align 4
  br label %39

39:                                               ; preds = %38
  br label %40

40:                                               ; preds = %39
  br label %41

41:                                               ; preds = %40
  store i32 1, ptr %10, align 4
  %42 = load ptr, ptr %6, align 8
  %43 = getelementptr inbounds nuw %struct.ReorderBufferToastEnt, ptr %42, i32 0, i32 4
  %44 = getelementptr inbounds nuw %struct.dlist_head, ptr %43, i32 0, i32 0
  %45 = getelementptr inbounds nuw %struct.dlist_mutable_iter, ptr %8, i32 0, i32 2
  store ptr %44, ptr %45, align 8
  %46 = getelementptr inbounds nuw %struct.dlist_mutable_iter, ptr %8, i32 0, i32 2
  %47 = load ptr, ptr %46, align 8
  %48 = getelementptr inbounds nuw %struct.dlist_node, ptr %47, i32 0, i32 1
  %49 = load ptr, ptr %48, align 8
  %50 = icmp ne ptr %49, null
  br i1 %50, label %51, label %56

51:                                               ; preds = %41
  %52 = getelementptr inbounds nuw %struct.dlist_mutable_iter, ptr %8, i32 0, i32 2
  %53 = load ptr, ptr %52, align 8
  %54 = getelementptr inbounds nuw %struct.dlist_node, ptr %53, i32 0, i32 1
  %55 = load ptr, ptr %54, align 8
  br label %59

56:                                               ; preds = %41
  %57 = getelementptr inbounds nuw %struct.dlist_mutable_iter, ptr %8, i32 0, i32 2
  %58 = load ptr, ptr %57, align 8
  br label %59

59:                                               ; preds = %56, %51
  %60 = phi ptr [ %55, %51 ], [ %58, %56 ]
  %61 = getelementptr inbounds nuw %struct.dlist_mutable_iter, ptr %8, i32 0, i32 0
  store ptr %60, ptr %61, align 8
  %62 = getelementptr inbounds nuw %struct.dlist_mutable_iter, ptr %8, i32 0, i32 0
  %63 = load ptr, ptr %62, align 8
  %64 = getelementptr inbounds nuw %struct.dlist_node, ptr %63, i32 0, i32 1
  %65 = load ptr, ptr %64, align 8
  %66 = getelementptr inbounds nuw %struct.dlist_mutable_iter, ptr %8, i32 0, i32 1
  store ptr %65, ptr %66, align 8
  br label %67

67:                                               ; preds = %87, %59
  %68 = getelementptr inbounds nuw %struct.dlist_mutable_iter, ptr %8, i32 0, i32 0
  %69 = load ptr, ptr %68, align 8
  %70 = getelementptr inbounds nuw %struct.dlist_mutable_iter, ptr %8, i32 0, i32 2
  %71 = load ptr, ptr %70, align 8
  %72 = icmp ne ptr %69, %71
  br i1 %72, label %73, label %96

73:                                               ; preds = %67
  call void @llvm.lifetime.start.p0(i64 8, ptr %11) #13
  br label %74

74:                                               ; preds = %73
  br label %75

75:                                               ; preds = %74
  br label %76

76:                                               ; preds = %75
  store i32 1, ptr %12, align 4
  br label %77

77:                                               ; preds = %76
  br label %78

78:                                               ; preds = %77
  br label %79

79:                                               ; preds = %78
  store i32 1, ptr %13, align 4
  %80 = getelementptr inbounds nuw %struct.dlist_mutable_iter, ptr %8, i32 0, i32 0
  %81 = load ptr, ptr %80, align 8
  %82 = getelementptr inbounds i8, ptr %81, i64 -64
  store ptr %82, ptr %11, align 8
  %83 = load ptr, ptr %11, align 8
  %84 = getelementptr inbounds nuw %struct.ReorderBufferChange, ptr %83, i32 0, i32 5
  call void @dlist_delete(ptr noundef %84)
  %85 = load ptr, ptr %3, align 8
  %86 = load ptr, ptr %11, align 8
  call void @ReorderBufferReturnChange(ptr noundef %85, ptr noundef %86, i1 noundef zeroext true)
  call void @llvm.lifetime.end.p0(i64 8, ptr %11) #13
  br label %87

87:                                               ; preds = %79
  %88 = getelementptr inbounds nuw %struct.dlist_mutable_iter, ptr %8, i32 0, i32 1
  %89 = load ptr, ptr %88, align 8
  %90 = getelementptr inbounds nuw %struct.dlist_mutable_iter, ptr %8, i32 0, i32 0
  store ptr %89, ptr %90, align 8
  %91 = getelementptr inbounds nuw %struct.dlist_mutable_iter, ptr %8, i32 0, i32 0
  %92 = load ptr, ptr %91, align 8
  %93 = getelementptr inbounds nuw %struct.dlist_node, ptr %92, i32 0, i32 1
  %94 = load ptr, ptr %93, align 8
  %95 = getelementptr inbounds nuw %struct.dlist_mutable_iter, ptr %8, i32 0, i32 1
  store ptr %94, ptr %95, align 8
  br label %67, !llvm.loop !31

96:                                               ; preds = %67
  call void @llvm.lifetime.end.p0(i64 24, ptr %8) #13
  br label %23, !llvm.loop !32

97:                                               ; preds = %23
  %98 = load ptr, ptr %4, align 8
  %99 = getelementptr inbounds nuw %struct.ReorderBufferTXN, ptr %98, i32 0, i32 23
  %100 = load ptr, ptr %99, align 8
  call void @hash_destroy(ptr noundef %100)
  %101 = load ptr, ptr %4, align 8
  %102 = getelementptr inbounds nuw %struct.ReorderBufferTXN, ptr %101, i32 0, i32 23
  store ptr null, ptr %102, align 8
  store i32 0, ptr %7, align 4
  br label %103

103:                                              ; preds = %97, %18
  call void @llvm.lifetime.end.p0(i64 8, ptr %6) #13
  call void @llvm.lifetime.end.p0(i64 32, ptr %5) #13
  %104 = load i32, ptr %7, align 4
  switch i32 %104, label %106 [
    i32 0, label %105
    i32 1, label %105
  ]

105:                                              ; preds = %103, %103
  ret void

106:                                              ; preds = %103
  unreachable
}