; Function Attrs: nounwind uwtable
define internal fastcc void @ReorderBufferToastReset(ptr noundef captures(none) %0, ptr noundef captures(none) %1) unnamed_addr #0 {
  %3 = alloca %struct.HASH_SEQ_STATUS, align 8
  call void @llvm.lifetime.start.p0(i64 32, ptr nonnull %3) #19
  %4 = getelementptr inbounds nuw i8, ptr %1, i64 200
  %5 = load ptr, ptr %4, align 8
  %6 = icmp eq ptr %5, null
  br i1 %6, label %23, label %7

7:                                                ; preds = %2
  call void @hash_seq_init(ptr noundef nonnull %3, ptr noundef nonnull %5) #19
  %8 = call ptr @hash_seq_search(ptr noundef nonnull %3) #19
  %.not24 = icmp eq ptr %8, null
  br i1 %.not24, label %._crit_edge, label %.lr.ph25

.loopexit:                                        ; preds = %.lr.ph, %14
  %9 = call ptr @hash_seq_search(ptr noundef nonnull %3) #19
  %.not = icmp eq ptr %9, null
  br i1 %.not, label %._crit_edge, label %.lr.ph25, !llvm.loop !34

.lr.ph25:                                         ; preds = %7, %.loopexit
  %10 = phi ptr [ %9, %.loopexit ], [ %8, %7 ]
  %11 = getelementptr inbounds nuw i8, ptr %10, i64 40
  %12 = load ptr, ptr %11, align 8
  %.not19 = icmp eq ptr %12, null
  br i1 %.not19, label %14, label %13

13:                                               ; preds = %.lr.ph25
  call void @pfree(ptr noundef nonnull %12) #19
  br label %14

14:                                               ; preds = %.lr.ph25, %13
  %15 = getelementptr inbounds nuw i8, ptr %10, i64 24
  %16 = getelementptr inbounds nuw i8, ptr %10, i64 32
  %17 = load ptr, ptr %16, align 8
  %.not20 = icmp eq ptr %17, null
  %.not212226 = icmp eq ptr %17, %15
  %.not2122 = select i1 %.not20, i1 true, i1 %.not212226
  br i1 %.not2122, label %.loopexit, label %.lr.ph

.lr.ph:                                           ; preds = %14, %.lr.ph
  %.sroa.0.023 = phi ptr [ %.sroa.8.0, %.lr.ph ], [ %17, %14 ]
  %.sroa.8.0.in = getelementptr inbounds nuw i8, ptr %.sroa.0.023, i64 8
  %.sroa.8.0 = load ptr, ptr %.sroa.8.0.in, align 8
  %18 = getelementptr inbounds i8, ptr %.sroa.0.023, i64 -64
  %19 = load ptr, ptr %.sroa.0.023, align 8
  %20 = getelementptr inbounds nuw i8, ptr %19, i64 8
  store ptr %.sroa.8.0, ptr %20, align 8
  %21 = load ptr, ptr %.sroa.0.023, align 8
  store ptr %21, ptr %.sroa.8.0, align 8
  call void @ReorderBufferReturnChange(ptr noundef %0, ptr noundef nonnull %18, i1 noundef zeroext true)
  %.not21 = icmp eq ptr %.sroa.8.0, %15
  br i1 %.not21, label %.loopexit, label %.lr.ph, !llvm.loop !35

._crit_edge:                                      ; preds = %.loopexit, %7
  %22 = load ptr, ptr %4, align 8
  call void @hash_destroy(ptr noundef %22) #19
  store ptr null, ptr %4, align 8
  br label %23

23:                                               ; preds = %2, %._crit_edge
  call void @llvm.lifetime.end.p0(i64 32, ptr nonnull %3) #19
  ret void
}